target datalayout = "e-m:e-p270:32:32-p271:32:32-p272:64:64-i64:64-i128:128-f80:128-n8:16:32:64-S128"
target triple = "x86_64-pc-linux-gnu"

%"class.llvm::StringRef" = type { ptr, i64 }
%"class.llvm::SmallPtrSetImplBase.base" = type <{ ptr, ptr, i32, i32, i32 }>
%"class.llvm::LoopBase" = type { ptr, %"class.std::vector", %"class.std::vector.0", %"class.llvm::SmallPtrSet" }
%"class.std::vector" = type { %"struct.std::_Vector_base" }
%"struct.std::_Vector_base" = type { %"struct.std::_Vector_base<llvm::Loop *, std::allocator<llvm::Loop *>>::_Vector_impl" }
%"struct.std::_Vector_base<llvm::Loop *, std::allocator<llvm::Loop *>>::_Vector_impl" = type { %"struct.std::_Vector_base<llvm::Loop *, std::allocator<llvm::Loop *>>::_Vector_impl_data" }
%"struct.std::_Vector_base<llvm::Loop *, std::allocator<llvm::Loop *>>::_Vector_impl_data" = type { ptr, ptr, ptr }
%"class.std::vector.0" = type { %"struct.std::_Vector_base.1" }
%"struct.std::_Vector_base.1" = type { %"struct.std::_Vector_base<llvm::BasicBlock *, std::allocator<llvm::BasicBlock *>>::_Vector_impl" }
%"struct.std::_Vector_base<llvm::BasicBlock *, std::allocator<llvm::BasicBlock *>>::_Vector_impl" = type { %"struct.std::_Vector_base<llvm::BasicBlock *, std::allocator<llvm::BasicBlock *>>::_Vector_impl_data" }
%"struct.std::_Vector_base<llvm::BasicBlock *, std::allocator<llvm::BasicBlock *>>::_Vector_impl_data" = type { ptr, ptr, ptr }
%"class.llvm::SmallPtrSet" = type { %"class.llvm::SmallPtrSetImpl.base", [8 x ptr] }
%"class.llvm::SmallPtrSetImpl.base" = type { %"class.llvm::SmallPtrSetImplBase.base" }
%"class.llvm::ArrayRef" = type { ptr, i64 }
%"class.llvm::ArrayRef.236" = type { ptr, i64 }
%"class.llvm::ArrayRef.237" = type { ptr, i64 }
%"class.std::initializer_list" = type { ptr, i64 }
%"class.llvm::ArrayRef.238" = type { ptr, i64 }
%"class.std::initializer_list.239" = type { ptr, i64 }

@.str.10 = private unnamed_addr constant [25 x i8] c"llvm.loop.unroll.disable\00", align 1
@.str.11 = private unnamed_addr constant [18 x i8] c"llvm.loop.unroll.\00", align 1

; Function Attrs: mustprogress nounwind uwtable
define linkonce_odr hidden noundef ptr @_ZNKSt6vectorIPN4llvm10BasicBlockESaIS2_EE11_M_data_ptrIS2_EEPT_S7_(ptr noundef nonnull align 8 dereferenceable(24) %0, ptr noundef %1) #0 comdat align 2 {
  %3 = alloca ptr, align 8
  %4 = alloca ptr, align 8
  store ptr %0, ptr %3, align 8
  store ptr %1, ptr %4, align 8
  %5 = load ptr, ptr %4, align 8
  ret ptr %5
}

; Function Attrs: mustprogress nounwind uwtable
define linkonce_odr hidden noundef i64 @_ZNKSt6vectorIPN4llvm10BasicBlockESaIS2_EE4sizeEv(ptr noundef nonnull align 8 dereferenceable(24) %0) #0 comdat align 2 {
  %2 = alloca ptr, align 8
  store ptr %0, ptr %2, align 8
  %3 = load ptr, ptr %2, align 8
  %4 = getelementptr inbounds nuw %"struct.std::_Vector_base.1", ptr %3, i32 0, i32 0
  %5 = getelementptr inbounds nuw %"struct.std::_Vector_base<llvm::BasicBlock *, std::allocator<llvm::BasicBlock *>>::_Vector_impl_data", ptr %4, i32 0, i32 1
  %6 = load ptr, ptr %5, align 8
  %7 = getelementptr inbounds nuw %"struct.std::_Vector_base.1", ptr %3, i32 0, i32 0
  %8 = getelementptr inbounds nuw %"struct.std::_Vector_base<llvm::BasicBlock *, std::allocator<llvm::BasicBlock *>>::_Vector_impl_data", ptr %7, i32 0, i32 0
  %9 = load ptr, ptr %8, align 8
  %10 = ptrtoint ptr %6 to i64
  %11 = ptrtoint ptr %9 to i64
  %12 = sub i64 %10, %11
  %13 = sdiv exact i64 %12, 8
  ret i64 %13
}

; Function Attrs: mustprogress nounwind uwtable
define linkonce_odr hidden noundef ptr @_ZNKSt6vectorIPN4llvm10BasicBlockESaIS2_EE4dataEv(ptr noundef nonnull align 8 dereferenceable(24) %0) #0 comdat align 2 {
  %2 = alloca ptr, align 8
  store ptr %0, ptr %2, align 8
  %3 = load ptr, ptr %2, align 8
  %4 = getelementptr inbounds nuw %"struct.std::_Vector_base.1", ptr %3, i32 0, i32 0
  %5 = getelementptr inbounds nuw %"struct.std::_Vector_base<llvm::BasicBlock *, std::allocator<llvm::BasicBlock *>>::_Vector_impl_data", ptr %4, i32 0, i32 0
  %6 = load ptr, ptr %5, align 8
  %7 = call noundef ptr @_ZNKSt6vectorIPN4llvm10BasicBlockESaIS2_EE11_M_data_ptrIS2_EEPT_S7_(ptr noundef nonnull align 8 dereferenceable(24) %3, ptr noundef %6) #4
  ret ptr %7
}

; Function Attrs: mustprogress nounwind uwtable
define linkonce_odr hidden void @_ZN4llvm8ArrayRefIPNS_10BasicBlockEEC2ISaIS2_EEERKSt6vectorIS2_T_E(ptr noundef nonnull align 8 dereferenceable(16) %0, ptr noundef nonnull align 8 dereferenceable(24) %1) unnamed_addr #0 comdat align 2 {
  %3 = alloca ptr, align 8
  %4 = alloca ptr, align 8
  store ptr %0, ptr %3, align 8
  store ptr %1, ptr %4, align 8
  %5 = load ptr, ptr %3, align 8
  %6 = getelementptr inbounds nuw %"class.llvm::ArrayRef", ptr %5, i32 0, i32 0
  %7 = load ptr, ptr %4, align 8
  %8 = call noundef ptr @_ZNKSt6vectorIPN4llvm10BasicBlockESaIS2_EE4dataEv(ptr noundef nonnull align 8 dereferenceable(24) %7) #4
  store ptr %8, ptr %6, align 8
  %9 = getelementptr inbounds nuw %"class.llvm::ArrayRef", ptr %5, i32 0, i32 1
  %10 = load ptr, ptr %4, align 8
  %11 = call noundef i64 @_ZNKSt6vectorIPN4llvm10BasicBlockESaIS2_EE4sizeEv(ptr noundef nonnull align 8 dereferenceable(24) %10) #4
  store i64 %11, ptr %9, align 8
  ret void
}

; Function Attrs: mustprogress nounwind uwtable
define linkonce_odr hidden noundef i64 @_ZNKSt16initializer_listIPN4llvm6MDNodeEE4sizeEv(ptr noundef nonnull align 8 dereferenceable(16) %0) #0 comdat align 2 {
  %2 = alloca ptr, align 8
  store ptr %0, ptr %2, align 8
  %3 = load ptr, ptr %2, align 8
  %4 = getelementptr inbounds nuw %"class.std::initializer_list.239", ptr %3, i32 0, i32 1
  %5 = load i64, ptr %4, align 8
  ret i64 %5
}

; Function Attrs: mustprogress nounwind uwtable
define linkonce_odr hidden noundef ptr @_ZNKSt16initializer_listIPN4llvm6MDNodeEE3endEv(ptr noundef nonnull align 8 dereferenceable(16) %0) #0 comdat align 2 {
  %2 = alloca ptr, align 8
  store ptr %0, ptr %2, align 8
  %3 = load ptr, ptr %2, align 8
  %4 = call noundef ptr @_ZNKSt16initializer_listIPN4llvm6MDNodeEE5beginEv(ptr noundef nonnull align 8 dereferenceable(16) %3) #4
  %5 = call noundef i64 @_ZNKSt16initializer_listIPN4llvm6MDNodeEE4sizeEv(ptr noundef nonnull align 8 dereferenceable(16) %3) #4
  %6 = getelementptr inbounds ptr, ptr %4, i64 %5
  ret ptr %6
}

; Function Attrs: mustprogress nounwind uwtable
define linkonce_odr hidden noundef ptr @_ZNKSt16initializer_listIPN4llvm6MDNodeEE5beginEv(ptr noundef nonnull align 8 dereferenceable(16) %0) #0 comdat align 2 {
  %2 = alloca ptr, align 8
  store ptr %0, ptr %2, align 8
  %3 = load ptr, ptr %2, align 8
  %4 = getelementptr inbounds nuw %"class.std::initializer_list.239", ptr %3, i32 0, i32 0
  %5 = load ptr, ptr %4, align 8
  ret ptr %5
}

; Function Attrs: mustprogress nounwind uwtable
define linkonce_odr hidden noundef i64 @_ZNKSt16initializer_listIN4llvm9StringRefEE4sizeEv(ptr noundef nonnull align 8 dereferenceable(16) %0) #0 comdat align 2 {
  %2 = alloca ptr, align 8
  store ptr %0, ptr %2, align 8
  %3 = load ptr, ptr %2, align 8
  %4 = getelementptr inbounds nuw %"class.std::initializer_list", ptr %3, i32 0, i32 1
  %5 = load i64, ptr %4, align 8
  ret i64 %5
}

; Function Attrs: mustprogress nounwind uwtable
define linkonce_odr hidden noundef ptr @_ZNKSt16initializer_listIN4llvm9StringRefEE3endEv(ptr noundef nonnull align 8 dereferenceable(16) %0) #0 comdat align 2 {
  %2 = alloca ptr, align 8
  store ptr %0, ptr %2, align 8
  %3 = load ptr, ptr %2, align 8
  %4 = call noundef ptr @_ZNKSt16initializer_listIN4llvm9StringRefEE5beginEv(ptr noundef nonnull align 8 dereferenceable(16) %3) #4
  %5 = call noundef i64 @_ZNKSt16initializer_listIN4llvm9StringRefEE4sizeEv(ptr noundef nonnull align 8 dereferenceable(16) %3) #4
  %6 = getelementptr inbounds %"class.llvm::StringRef", ptr %4, i64 %5
  ret ptr %6
}

; Function Attrs: mustprogress nounwind uwtable
define linkonce_odr hidden noundef ptr @_ZNKSt16initializer_listIN4llvm9StringRefEE5beginEv(ptr noundef nonnull align 8 dereferenceable(16) %0) #0 comdat align 2 {
  %2 = alloca ptr, align 8
  store ptr %0, ptr %2, align 8
  %3 = load ptr, ptr %2, align 8
  %4 = getelementptr inbounds nuw %"class.std::initializer_list", ptr %3, i32 0, i32 0
  %5 = load ptr, ptr %4, align 8
  ret ptr %5
}

; Function Attrs: mustprogress nounwind uwtable
define linkonce_odr hidden noundef i64 @_ZNSt11char_traitsIcE6lengthEPKc(ptr noundef %0) #0 comdat align 2 {
  %2 = alloca ptr, align 8
  store ptr %0, ptr %2, align 8
  %3 = load ptr, ptr %2, align 8
  %4 = call i64 @strlen(ptr noundef %3) #4
  ret i64 %4
}

; Function Attrs: mustprogress nounwind uwtable
define linkonce_odr hidden noundef ptr @_ZN4llvm7MDTuple3getERNS_11LLVMContextENS_8ArrayRefIPNS_8MetadataEEE(ptr noundef nonnull align 8 dereferenceable(8) %0, ptr %1, i64 %2) #0 comdat align 2 {
  %4 = alloca %"class.llvm::ArrayRef.236", align 8
  %5 = alloca ptr, align 8
  %6 = alloca %"class.llvm::ArrayRef.236", align 8
  %7 = getelementptr inbounds nuw { ptr, i64 }, ptr %4, i32 0, i32 0
  store ptr %1, ptr %7, align 8
  %8 = getelementptr inbounds nuw { ptr, i64 }, ptr %4, i32 0, i32 1
  store i64 %2, ptr %8, align 8
  store ptr %0, ptr %5, align 8
  %9 = load ptr, ptr %5, align 8
  call void @llvm.memcpy.p0.p0.i64(ptr align 8 %6, ptr align 8 %4, i64 16, i1 false)
  %10 = getelementptr inbounds nuw { ptr, i64 }, ptr %6, i32 0, i32 0
  %11 = load ptr, ptr %10, align 8
  %12 = getelementptr inbounds nuw { ptr, i64 }, ptr %6, i32 0, i32 1
  %13 = load i64, ptr %12, align 8
  %14 = call noundef ptr @_ZN4llvm7MDTuple7getImplERNS_11LLVMContextENS_8ArrayRefIPNS_8MetadataEEENS4_11StorageTypeEb(ptr noundef nonnull align 8 dereferenceable(8) %9, ptr %11, i64 %13, i32 noundef 0, i1 noundef zeroext true)
  ret ptr %14
}

; Function Attrs: mustprogress nounwind uwtable
define linkonce_odr hidden void @_ZN4llvm9StringRefC2Ev(ptr noundef nonnull align 8 dereferenceable(16) %0) unnamed_addr #0 comdat align 2 {
  %2 = alloca ptr, align 8
  store ptr %0, ptr %2, align 8
  %3 = load ptr, ptr %2, align 8
  %4 = getelementptr inbounds nuw %"class.llvm::StringRef", ptr %3, i32 0, i32 0
  store ptr null, ptr %4, align 8
  %5 = getelementptr inbounds nuw %"class.llvm::StringRef", ptr %3, i32 0, i32 1
  store i64 0, ptr %5, align 8
  ret void
}

; Function Attrs: mustprogress nounwind uwtable
define linkonce_odr hidden noundef nonnull align 8 dereferenceable(8) ptr @_ZNK4llvm8ArrayRefIPNS_10BasicBlockEE5frontEv(ptr noundef nonnull align 8 dereferenceable(16) %0) #0 comdat align 2 {
  %2 = alloca ptr, align 8
  store ptr %0, ptr %2, align 8
  %3 = load ptr, ptr %2, align 8
  %4 = getelementptr inbounds nuw %"class.llvm::ArrayRef", ptr %3, i32 0, i32 0
  %5 = load ptr, ptr %4, align 8
  %6 = getelementptr inbounds ptr, ptr %5, i64 0
  ret ptr %6
}

; Function Attrs: mustprogress nounwind uwtable
define weak_odr { ptr, i64 } @_ZNK4llvm8LoopBaseINS_10BasicBlockENS_4LoopEE9getBlocksEv(ptr noundef nonnull align 8 dereferenceable(152) %0) #0 comdat align 2 {
  %2 = alloca %"class.llvm::ArrayRef", align 8
  %3 = alloca ptr, align 8
  store ptr %0, ptr %3, align 8
  %4 = load ptr, ptr %3, align 8
  %5 = getelementptr inbounds nuw %"class.llvm::LoopBase", ptr %4, i32 0, i32 2
  call void @_ZN4llvm8ArrayRefIPNS_10BasicBlockEEC2ISaIS2_EEERKSt6vectorIS2_T_E(ptr noundef nonnull align 8 dereferenceable(16) %2, ptr noundef nonnull align 8 dereferenceable(24) %5)
  %6 = load { ptr, i64 }, ptr %2, align 8
  ret { ptr, i64 } %6
}

; Function Attrs: mustprogress nounwind uwtable
define linkonce_odr hidden void @_ZN4llvm8ArrayRefIPNS_6MDNodeEEC2ERKSt16initializer_listIS2_E(ptr noundef nonnull align 8 dereferenceable(16) %0, ptr noundef nonnull align 8 dereferenceable(16) %1) unnamed_addr #0 comdat align 2 {
  %3 = alloca ptr, align 8
  %4 = alloca ptr, align 8
  store ptr %0, ptr %3, align 8
  store ptr %1, ptr %4, align 8
  %5 = load ptr, ptr %3, align 8
  %6 = getelementptr inbounds nuw %"class.llvm::ArrayRef.238", ptr %5, i32 0, i32 0
  %7 = load ptr, ptr %4, align 8
  %8 = call noundef ptr @_ZNKSt16initializer_listIPN4llvm6MDNodeEE5beginEv(ptr noundef nonnull align 8 dereferenceable(16) %7) #4
  %9 = load ptr, ptr %4, align 8
  %10 = call noundef ptr @_ZNKSt16initializer_listIPN4llvm6MDNodeEE3endEv(ptr noundef nonnull align 8 dereferenceable(16) %9) #4
  %11 = icmp eq ptr %8, %10
  br i1 %11, label %12, label %13

12:                                               ; preds = %2
  br label %16

13:                                               ; preds = %2
  %14 = load ptr, ptr %4, align 8
  %15 = call noundef ptr @_ZNKSt16initializer_listIPN4llvm6MDNodeEE5beginEv(ptr noundef nonnull align 8 dereferenceable(16) %14) #4
  br label %16

16:                                               ; preds = %13, %12
  %17 = phi ptr [ null, %12 ], [ %15, %13 ]
  store ptr %17, ptr %6, align 8
  %18 = getelementptr inbounds nuw %"class.llvm::ArrayRef.238", ptr %5, i32 0, i32 1
  %19 = load ptr, ptr %4, align 8
  %20 = call noundef i64 @_ZNKSt16initializer_listIPN4llvm6MDNodeEE4sizeEv(ptr noundef nonnull align 8 dereferenceable(16) %19) #4
  store i64 %20, ptr %18, align 8
  ret void
}

; Function Attrs: mustprogress nounwind uwtable
define linkonce_odr hidden void @_ZN4llvm8ArrayRefINS_9StringRefEEC2ERKSt16initializer_listIS1_E(ptr noundef nonnull align 8 dereferenceable(16) %0, ptr noundef nonnull align 8 dereferenceable(16) %1) unnamed_addr #0 comdat align 2 {
  %3 = alloca ptr, align 8
  %4 = alloca ptr, align 8
  store ptr %0, ptr %3, align 8
  store ptr %1, ptr %4, align 8
  %5 = load ptr, ptr %3, align 8
  %6 = getelementptr inbounds nuw %"class.llvm::ArrayRef.237", ptr %5, i32 0, i32 0
  %7 = load ptr, ptr %4, align 8
  %8 = call noundef ptr @_ZNKSt16initializer_listIN4llvm9StringRefEE5beginEv(ptr noundef nonnull align 8 dereferenceable(16) %7) #4
  %9 = load ptr, ptr %4, align 8
  %10 = call noundef ptr @_ZNKSt16initializer_listIN4llvm9StringRefEE3endEv(ptr noundef nonnull align 8 dereferenceable(16) %9) #4
  %11 = icmp eq ptr %8, %10
  br i1 %11, label %12, label %13

12:                                               ; preds = %2
  br label %16

13:                                               ; preds = %2
  %14 = load ptr, ptr %4, align 8
  %15 = call noundef ptr @_ZNKSt16initializer_listIN4llvm9StringRefEE5beginEv(ptr noundef nonnull align 8 dereferenceable(16) %14) #4
  br label %16

16:                                               ; preds = %13, %12
  %17 = phi ptr [ null, %12 ], [ %15, %13 ]
  store ptr %17, ptr %6, align 8
  %18 = getelementptr inbounds nuw %"class.llvm::ArrayRef.237", ptr %5, i32 0, i32 1
  %19 = load ptr, ptr %4, align 8
  %20 = call noundef i64 @_ZNKSt16initializer_listIN4llvm9StringRefEE4sizeEv(ptr noundef nonnull align 8 dereferenceable(16) %19) #4
  store i64 %20, ptr %18, align 8
  ret void
}

; Function Attrs: mustprogress nounwind uwtable
define linkonce_odr hidden void @_ZN4llvm9StringRefC2EPKc(ptr noundef nonnull align 8 dereferenceable(16) %0, ptr noundef %1) unnamed_addr #0 comdat align 2 {
  %3 = alloca ptr, align 8
  %4 = alloca ptr, align 8
  store ptr %0, ptr %3, align 8
  store ptr %1, ptr %4, align 8
  %5 = load ptr, ptr %3, align 8
  %6 = getelementptr inbounds nuw %"class.llvm::StringRef", ptr %5, i32 0, i32 0
  %7 = load ptr, ptr %4, align 8
  store ptr %7, ptr %6, align 8
  %8 = getelementptr inbounds nuw %"class.llvm::StringRef", ptr %5, i32 0, i32 1
  %9 = load ptr, ptr %4, align 8
  %10 = icmp ne ptr %9, null
  br i1 %10, label %11, label %14

11:                                               ; preds = %2
  %12 = load ptr, ptr %4, align 8
  %13 = call noundef i64 @_ZNSt11char_traitsIcE6lengthEPKc(ptr noundef %12)
  br label %15

14:                                               ; preds = %2
  br label %15

15:                                               ; preds = %14, %11
  %16 = phi i64 [ %13, %11 ], [ 0, %14 ]
  store i64 %16, ptr %8, align 8
  ret void
}

; Function Attrs: mustprogress nounwind uwtable
define linkonce_odr hidden noundef ptr @_ZN4llvm6MDNode3getERNS_11LLVMContextENS_8ArrayRefIPNS_8MetadataEEE(ptr noundef nonnull align 8 dereferenceable(8) %0, ptr %1, i64 %2) #0 comdat align 2 {
  %4 = alloca %"class.llvm::ArrayRef.236", align 8
  %5 = alloca ptr, align 8
  %6 = alloca %"class.llvm::ArrayRef.236", align 8
  %7 = getelementptr inbounds nuw { ptr, i64 }, ptr %4, i32 0, i32 0
  store ptr %1, ptr %7, align 8
  %8 = getelementptr inbounds nuw { ptr, i64 }, ptr %4, i32 0, i32 1
  store i64 %2, ptr %8, align 8
  store ptr %0, ptr %5, align 8
  %9 = load ptr, ptr %5, align 8
  call void @llvm.memcpy.p0.p0.i64(ptr align 8 %6, ptr align 8 %4, i64 16, i1 false)
  %10 = getelementptr inbounds nuw { ptr, i64 }, ptr %6, i32 0, i32 0
  %11 = load ptr, ptr %10, align 8
  %12 = getelementptr inbounds nuw { ptr, i64 }, ptr %6, i32 0, i32 1
  %13 = load i64, ptr %12, align 8
  %14 = call noundef ptr @_ZN4llvm7MDTuple3getERNS_11LLVMContextENS_8ArrayRefIPNS_8MetadataEEE(ptr noundef nonnull align 8 dereferenceable(8) %9, ptr %11, i64 %13)
  ret ptr %14
}

; Function Attrs: mustprogress nounwind uwtable
define linkonce_odr hidden void @_ZN4llvm8ArrayRefIPNS_8MetadataEEC2ERKS2_(ptr noundef nonnull align 8 dereferenceable(16) %0, ptr noundef nonnull align 8 dereferenceable(8) %1) unnamed_addr #0 comdat align 2 {
  %3 = alloca ptr, align 8
  %4 = alloca ptr, align 8
  store ptr %0, ptr %3, align 8
  store ptr %1, ptr %4, align 8
  %5 = load ptr, ptr %3, align 8
  %6 = getelementptr inbounds nuw %"class.llvm::ArrayRef.236", ptr %5, i32 0, i32 0
  %7 = load ptr, ptr %4, align 8
  store ptr %7, ptr %6, align 8
  %8 = getelementptr inbounds nuw %"class.llvm::ArrayRef.236", ptr %5, i32 0, i32 1
  store i64 1, ptr %8, align 8
  ret void
}

; Function Attrs: mustprogress nounwind uwtable
define linkonce_odr hidden noundef ptr @_ZN4llvm8MDString3getERNS_11LLVMContextEPKc(ptr noundef nonnull align 8 dereferenceable(8) %0, ptr noundef %1) #0 comdat align 2 {
  %3 = alloca ptr, align 8
  %4 = alloca ptr, align 8
  %5 = alloca %"class.llvm::StringRef", align 8
  store ptr %0, ptr %3, align 8
  store ptr %1, ptr %4, align 8
  %6 = load ptr, ptr %3, align 8
  %7 = load ptr, ptr %4, align 8
  %8 = icmp ne ptr %7, null
  br i1 %8, label %9, label %11

9:                                                ; preds = %2
  %10 = load ptr, ptr %4, align 8
  call void @_ZN4llvm9StringRefC2EPKc(ptr noundef nonnull align 8 dereferenceable(16) %5, ptr noundef %10)
  br label %12

11:                                               ; preds = %2
  call void @llvm.memset.p0.i64(ptr align 8 %5, i8 0, i64 16, i1 false)
  call void @_ZN4llvm9StringRefC2Ev(ptr noundef nonnull align 8 dereferenceable(16) %5) #4
  br label %12

12:                                               ; preds = %11, %9
  %13 = getelementptr inbounds nuw { ptr, i64 }, ptr %5, i32 0, i32 0
  %14 = load ptr, ptr %13, align 8
  %15 = getelementptr inbounds nuw { ptr, i64 }, ptr %5, i32 0, i32 1
  %16 = load i64, ptr %15, align 8
  %17 = call noundef ptr @_ZN4llvm8MDString3getERNS_11LLVMContextENS_9StringRefE(ptr noundef nonnull align 8 dereferenceable(8) %6, ptr %14, i64 %16)
  ret ptr %17
}

; Function Attrs: mustprogress nounwind uwtable
define weak_odr noundef ptr @_ZNK4llvm8LoopBaseINS_10BasicBlockENS_4LoopEE9getHeaderEv(ptr noundef nonnull align 8 dereferenceable(152) %0) #0 comdat align 2 {
  %2 = alloca ptr, align 8
  %3 = alloca %"class.llvm::ArrayRef", align 8
  store ptr %0, ptr %2, align 8
  %4 = load ptr, ptr %2, align 8
  %5 = call { ptr, i64 } @_ZNK4llvm8LoopBaseINS_10BasicBlockENS_4LoopEE9getBlocksEv(ptr noundef nonnull align 8 dereferenceable(152) %4)
  %6 = getelementptr inbounds nuw { ptr, i64 }, ptr %3, i32 0, i32 0
  %7 = extractvalue { ptr, i64 } %5, 0
  store ptr %7, ptr %6, align 8
  %8 = getelementptr inbounds nuw { ptr, i64 }, ptr %3, i32 0, i32 1
  %9 = extractvalue { ptr, i64 } %5, 1
  store i64 %9, ptr %8, align 8
  %10 = call noundef nonnull align 8 dereferenceable(8) ptr @_ZNK4llvm8ArrayRefIPNS_10BasicBlockEE5frontEv(ptr noundef nonnull align 8 dereferenceable(16) %3)
  %11 = load ptr, ptr %10, align 8
  ret ptr %11
}

; Function Attrs: mustprogress nounwind uwtable
define dso_local void @_ZN4llvm4Loop22setLoopAlreadyUnrolledEv(ptr noundef nonnull align 8 dereferenceable(152) %0) #0 align 2 {
  %2 = alloca ptr, align 8
  %3 = alloca ptr, align 8
  %4 = alloca ptr, align 8
  %5 = alloca %"class.llvm::ArrayRef.236", align 8
  %6 = alloca ptr, align 8
  %7 = alloca ptr, align 8
  %8 = alloca ptr, align 8
  %9 = alloca %"class.llvm::ArrayRef.237", align 8
  %10 = alloca %"class.std::initializer_list", align 8
  %11 = alloca [1 x %"class.llvm::StringRef"], align 8
  %12 = alloca %"class.llvm::ArrayRef.238", align 8
  %13 = alloca %"class.std::initializer_list.239", align 8
  %14 = alloca [1 x ptr], align 8
  store ptr %0, ptr %2, align 8
  %15 = load ptr, ptr %2, align 8
  %16 = call noundef ptr @_ZNK4llvm8LoopBaseINS_10BasicBlockENS_4LoopEE9getHeaderEv(ptr noundef nonnull align 8 dereferenceable(152) %15)
  %17 = call noundef nonnull align 8 dereferenceable(8) ptr @_ZNK4llvm10BasicBlock10getContextEv(ptr noundef nonnull align 8 dereferenceable(80) %16)
  store ptr %17, ptr %3, align 8
  %18 = load ptr, ptr %3, align 8
  %19 = load ptr, ptr %3, align 8
  %20 = call noundef ptr @_ZN4llvm8MDString3getERNS_11LLVMContextEPKc(ptr noundef nonnull align 8 dereferenceable(8) %19, ptr noundef @.str.10)
  store ptr %20, ptr %6, align 8
  call void @_ZN4llvm8ArrayRefIPNS_8MetadataEEC2ERKS2_(ptr noundef nonnull align 8 dereferenceable(16) %5, ptr noundef nonnull align 8 dereferenceable(8) %6)
  %21 = getelementptr inbounds nuw { ptr, i64 }, ptr %5, i32 0, i32 0
  %22 = load ptr, ptr %21, align 8
  %23 = getelementptr inbounds nuw { ptr, i64 }, ptr %5, i32 0, i32 1
  %24 = load i64, ptr %23, align 8
  %25 = call noundef ptr @_ZN4llvm6MDNode3getERNS_11LLVMContextENS_8ArrayRefIPNS_8MetadataEEE(ptr noundef nonnull align 8 dereferenceable(8) %18, ptr %22, i64 %24)
  store ptr %25, ptr %4, align 8
  %26 = call noundef ptr @_ZNK4llvm4Loop9getLoopIDEv(ptr noundef nonnull align 8 dereferenceable(152) %15)
  store ptr %26, ptr %7, align 8
  %27 = load ptr, ptr %3, align 8
  %28 = load ptr, ptr %7, align 8
  call void @_ZN4llvm9StringRefC2EPKc(ptr noundef nonnull align 8 dereferenceable(16) %11, ptr noundef @.str.11)
  %29 = getelementptr inbounds nuw %"class.std::initializer_list", ptr %10, i32 0, i32 0
  store ptr %11, ptr %29, align 8
  %30 = getelementptr inbounds nuw %"class.std::initializer_list", ptr %10, i32 0, i32 1
  store i64 1, ptr %30, align 8
  call void @_ZN4llvm8ArrayRefINS_9StringRefEEC2ERKSt16initializer_listIS1_E(ptr noundef nonnull align 8 dereferenceable(16) %9, ptr noundef nonnull align 8 dereferenceable(16) %10)
  %31 = load ptr, ptr %4, align 8
  store ptr %31, ptr %14, align 8
  %32 = getelementptr inbounds nuw %"class.std::initializer_list.239", ptr %13, i32 0, i32 0
  store ptr %14, ptr %32, align 8
  %33 = getelementptr inbounds nuw %"class.std::initializer_list.239", ptr %13, i32 0, i32 1
  store i64 1, ptr %33, align 8
  call void @_ZN4llvm8ArrayRefIPNS_6MDNodeEEC2ERKSt16initializer_listIS2_E(ptr noundef nonnull align 8 dereferenceable(16) %12, ptr noundef nonnull align 8 dereferenceable(16) %13)
  %34 = getelementptr inbounds nuw { ptr, i64 }, ptr %9, i32 0, i32 0
  %35 = load ptr, ptr %34, align 8
  %36 = getelementptr inbounds nuw { ptr, i64 }, ptr %9, i32 0, i32 1
  %37 = load i64, ptr %36, align 8
  %38 = getelementptr inbounds nuw { ptr, i64 }, ptr %12, i32 0, i32 0
  %39 = load ptr, ptr %38, align 8
  %40 = getelementptr inbounds nuw { ptr, i64 }, ptr %12, i32 0, i32 1
  %41 = load i64, ptr %40, align 8
  %42 = call noundef ptr @_ZN4llvm30makePostTransformationMetadataERNS_11LLVMContextEPNS_6MDNodeENS_8ArrayRefINS_9StringRefEEENS4_IS3_EE(ptr noundef nonnull align 8 dereferenceable(8) %27, ptr noundef %28, ptr %35, i64 %37, ptr %39, i64 %41)
  store ptr %42, ptr %8, align 8
  %43 = load ptr, ptr %8, align 8
  call void @_ZNK4llvm4Loop9setLoopIDEPNS_6MDNodeE(ptr noundef nonnull align 8 dereferenceable(152) %15, ptr noundef %43)
  ret void
}