; Function Attrs: mustprogress nounwind uwtable
define dso_local void @_ZN4llvm4Loop22setLoopAlreadyUnrolledEv(ptr noundef nonnull align 8 dereferenceable(152) %0) local_unnamed_addr #0 align 2 {
  %2 = alloca ptr, align 8
  %3 = alloca [1 x %"class.llvm::StringRef"], align 8
  %4 = alloca [1 x ptr], align 8
  %5 = getelementptr inbounds nuw i8, ptr %0, i64 32
  %6 = load ptr, ptr %5, align 8
  %7 = load ptr, ptr %6, align 8
  %8 = tail call noundef nonnull align 8 dereferenceable(8) ptr @_ZNK4llvm10BasicBlock10getContextEv(ptr noundef nonnull align 8 dereferenceable(80) %7) #19
  %9 = tail call noundef ptr @_ZN4llvm8MDString3getERNS_11LLVMContextENS_9StringRefE(ptr noundef nonnull align 8 dereferenceable(8) %8, ptr nonnull @.str.10, i64 24) #19
  store ptr %9, ptr %2, align 8
  %10 = call noundef ptr @_ZN4llvm7MDTuple7getImplERNS_11LLVMContextENS_8ArrayRefIPNS_8MetadataEEENS4_11StorageTypeEb(ptr noundef nonnull align 8 dereferenceable(8) %8, ptr nonnull %2, i64 1, i32 noundef 0, i1 noundef zeroext true) #19
  %11 = call noundef ptr @_ZNK4llvm4Loop9getLoopIDEv(ptr noundef nonnull align 8 dereferenceable(152) %0)
  store ptr @.str.11, ptr %3, align 8
  %12 = getelementptr inbounds nuw i8, ptr %3, i64 8
  store i64 17, ptr %12, align 8
  store ptr %10, ptr %4, align 8
  %13 = call noundef ptr @_ZN4llvm30makePostTransformationMetadataERNS_11LLVMContextEPNS_6MDNodeENS_8ArrayRefINS_9StringRefEEENS4_IS3_EE(ptr noundef nonnull align 8 dereferenceable(8) %8, ptr noundef %11, ptr nonnull %3, i64 1, ptr nonnull %4, i64 1)
  call void @_ZNK4llvm4Loop9setLoopIDEPNS_6MDNodeE(ptr noundef nonnull align 8 dereferenceable(152) %0, ptr noundef %13)
  ret void
}